; Function Attrs: nounwind sspstrong uwtable
define internal noundef i64 @rb_hash_update(i32 noundef %0, ptr noundef readonly captures(none) %1, i64 noundef returned %2) #0 {
  %4 = tail call i32 @rb_block_given_p() #28
  %.fr = freeze i32 %4
  %.not = icmp eq i32 %.fr, 0
  %5 = icmp eq i64 %2, 0
  %6 = and i64 %2, 7
  %7 = icmp ne i64 %6, 0
  %8 = or i1 %5, %7
  br i1 %8, label %RB_OBJ_FROZEN.exit.thread.i.i.i, label %RB_FL_ABLE.exit.i.i.i.i, !prof !62

RB_FL_ABLE.exit.i.i.i.i:                          ; preds = %3
  %9 = inttoptr i64 %2 to ptr
  %10 = load i64, ptr %9, align 8, !tbaa !11
  %11 = and i64 %10, 31
  %.not.i.i.i.i = icmp eq i64 %11, 27
  %12 = and i64 %10, 2048
  %13 = icmp ne i64 %12, 0
  %or.cond.i.i.i = or i1 %.not.i.i.i.i, %13
  br i1 %or.cond.i.i.i, label %RB_OBJ_FROZEN.exit.thread.i.i.i, label %rbimpl_RB_TYPE_P_fastpath.exit.i.i.i, !prof !63

RB_OBJ_FROZEN.exit.thread.i.i.i:                  ; preds = %RB_FL_ABLE.exit.i.i.i.i, %3
  tail call void @rb_error_frozen_object(i64 noundef %2) #30
  unreachable

rbimpl_RB_TYPE_P_fastpath.exit.i.i.i:             ; preds = %RB_FL_ABLE.exit.i.i.i.i
  %14 = icmp ne i64 %11, 5
  %15 = and i64 %10, 49152
  %.not.i.i.i = icmp eq i64 %15, 0
  %or.cond8.i.i.i = or i1 %14, %.not.i.i.i
  br i1 %or.cond8.i.i.i, label %rb_hash_modify.exit, label %16, !prof !64

16:                                               ; preds = %rbimpl_RB_TYPE_P_fastpath.exit.i.i.i
  tail call void @rb_str_modify(i64 noundef %2) #28
  br label %rb_hash_modify.exit

rb_hash_modify.exit:                              ; preds = %rbimpl_RB_TYPE_P_fastpath.exit.i.i.i, %16
  %17 = icmp sgt i32 %0, 0
  br i1 %17, label %.lr.ph, label %._crit_edge

.lr.ph:                                           ; preds = %rb_hash_modify.exit
  %wide.trip.count17 = zext nneg i32 %0 to i64
  br i1 %.not, label %.lr.ph.split.us, label %.lr.ph.split

.lr.ph.split.us:                                  ; preds = %.lr.ph, %.lr.ph.split.us
  %indvars.iv14 = phi i64 [ %indvars.iv.next15, %.lr.ph.split.us ], [ 0, %.lr.ph ]
  %18 = getelementptr i64, ptr %1, i64 %indvars.iv14
  %19 = load i64, ptr %18, align 8, !tbaa !7
  %20 = tail call i64 @rb_convert_type_with_id(i64 noundef %19, i32 noundef 8, ptr noundef nonnull @.str.2, i64 noundef 3297) #28
  tail call void @rb_hash_foreach(i64 noundef %20, ptr noundef @rb_hash_update_i, i64 noundef %2)
  %indvars.iv.next15 = add nuw nsw i64 %indvars.iv14, 1
  %exitcond18.not = icmp eq i64 %indvars.iv.next15, %wide.trip.count17
  br i1 %exitcond18.not, label %._crit_edge, label %.lr.ph.split.us, !llvm.loop !113

.lr.ph.split:                                     ; preds = %.lr.ph, %.lr.ph.split
  %indvars.iv = phi i64 [ %indvars.iv.next, %.lr.ph.split ], [ 0, %.lr.ph ]
  %21 = getelementptr i64, ptr %1, i64 %indvars.iv
  %22 = load i64, ptr %21, align 8, !tbaa !7
  %23 = tail call i64 @rb_convert_type_with_id(i64 noundef %22, i32 noundef 8, ptr noundef nonnull @.str.2, i64 noundef 3297) #28
  tail call void @rb_hash_foreach(i64 noundef %23, ptr noundef @rb_hash_update_block_i, i64 noundef %2)
  %indvars.iv.next = add nuw nsw i64 %indvars.iv, 1
  %exitcond.not = icmp eq i64 %indvars.iv.next, %wide.trip.count17
  br i1 %exitcond.not, label %._crit_edge, label %.lr.ph.split, !llvm.loop !113

._crit_edge:                                      ; preds = %.lr.ph.split, %.lr.ph.split.us, %rb_hash_modify.exit
  ret i64 %2
}